target datalayout = "e-m:e-p270:32:32-p271:32:32-p272:64:64-i64:64-i128:128-f80:128-n8:16:32:64-S128"
target triple = "x86_64-pc-linux-gnu"

%struct.ViewSpecifier = type { i32, i32 }

@.str.3 = private unnamed_addr constant [6 x i8] c"view:\00", align 1
@.str.4 = private unnamed_addr constant [4 x i8] c"all\00", align 1
@.str.5 = private unnamed_addr constant [21 x i8] c"Invalid view ID: %s\0A\00", align 1
@.str.6 = private unnamed_addr constant [6 x i8] c"vidx:\00", align 1
@.str.7 = private unnamed_addr constant [24 x i8] c"Invalid view index: %s\0A\00", align 1
@.str.8 = private unnamed_addr constant [6 x i8] c"vpos:\00", align 1
@.str.9 = private unnamed_addr constant [5 x i8] c"left\00", align 1
@.str.10 = private unnamed_addr constant [6 x i8] c"right\00", align 1
@.str.11 = private unnamed_addr constant [27 x i8] c"Invalid view position: %s\0A\00", align 1

; Function Attrs: nounwind uwtable
define i32 @view_specifier_parse(ptr noundef %0, ptr noundef %1) #0 {
  %3 = alloca i32, align 4
  %4 = alloca ptr, align 8
  %5 = alloca ptr, align 8
  %6 = alloca ptr, align 8
  %7 = alloca ptr, align 8
  %8 = alloca i32, align 4
  store ptr %0, ptr %4, align 8, !tbaa !31
  store ptr %1, ptr %5, align 8, !tbaa !61
  call void @llvm.lifetime.start.p0(i64 8, ptr %6) #12
  %9 = load ptr, ptr %4, align 8, !tbaa !31
  %10 = load ptr, ptr %9, align 8, !tbaa !23
  store ptr %10, ptr %6, align 8, !tbaa !23
  call void @llvm.lifetime.start.p0(i64 8, ptr %7) #12
  %11 = load ptr, ptr %5, align 8, !tbaa !61
  %12 = getelementptr inbounds nuw %struct.ViewSpecifier, ptr %11, i32 0, i32 0
  store i32 0, ptr %12, align 4, !tbaa !63
  %13 = load ptr, ptr %6, align 8, !tbaa !23
  %14 = call i32 @strncmp(ptr noundef %13, ptr noundef @.str.3, i64 noundef 5) #13
  %15 = icmp ne i32 %14, 0
  br i1 %15, label %43, label %16

16:                                               ; preds = %2
  %17 = load ptr, ptr %6, align 8, !tbaa !23
  %18 = getelementptr inbounds i8, ptr %17, i64 5
  store ptr %18, ptr %6, align 8, !tbaa !23
  %19 = load ptr, ptr %6, align 8, !tbaa !23
  %20 = call i32 @strncmp(ptr noundef %19, ptr noundef @.str.4, i64 noundef 3) #13
  %21 = icmp ne i32 %20, 0
  br i1 %21, label %27, label %22

22:                                               ; preds = %16
  %23 = load ptr, ptr %6, align 8, !tbaa !23
  %24 = getelementptr inbounds i8, ptr %23, i64 3
  store ptr %24, ptr %6, align 8, !tbaa !23
  %25 = load ptr, ptr %5, align 8, !tbaa !61
  %26 = getelementptr inbounds nuw %struct.ViewSpecifier, ptr %25, i32 0, i32 0
  store i32 4, ptr %26, align 4, !tbaa !63
  br label %42

27:                                               ; preds = %16
  %28 = load ptr, ptr %5, align 8, !tbaa !61
  %29 = getelementptr inbounds nuw %struct.ViewSpecifier, ptr %28, i32 0, i32 0
  store i32 2, ptr %29, align 4, !tbaa !63
  %30 = load ptr, ptr %6, align 8, !tbaa !23
  %31 = call i64 @strtoul(ptr noundef %30, ptr noundef %7, i32 noundef 0) #12
  %32 = trunc i64 %31 to i32
  %33 = load ptr, ptr %5, align 8, !tbaa !61
  %34 = getelementptr inbounds nuw %struct.ViewSpecifier, ptr %33, i32 0, i32 1
  store i32 %32, ptr %34, align 4, !tbaa !65
  %35 = load ptr, ptr %7, align 8, !tbaa !23
  %36 = load ptr, ptr %6, align 8, !tbaa !23
  %37 = icmp eq ptr %35, %36
  br i1 %37, label %38, label %40

38:                                               ; preds = %27
  %39 = load ptr, ptr %6, align 8, !tbaa !23
  call void (ptr, i32, ptr, ...) @av_log(ptr noundef null, i32 noundef 16, ptr noundef @.str.5, ptr noundef %39)
  store i32 -22, ptr %3, align 4
  store i32 1, ptr %8, align 4
  br label %112

40:                                               ; preds = %27
  %41 = load ptr, ptr %7, align 8, !tbaa !23
  store ptr %41, ptr %6, align 8, !tbaa !23
  br label %42

42:                                               ; preds = %40, %22
  br label %109

43:                                               ; preds = %2
  %44 = load ptr, ptr %6, align 8, !tbaa !23
  %45 = call i32 @strncmp(ptr noundef %44, ptr noundef @.str.6, i64 noundef 5) #13
  %46 = icmp ne i32 %45, 0
  br i1 %46, label %64, label %47

47:                                               ; preds = %43
  %48 = load ptr, ptr %6, align 8, !tbaa !23
  %49 = getelementptr inbounds i8, ptr %48, i64 5
  store ptr %49, ptr %6, align 8, !tbaa !23
  %50 = load ptr, ptr %5, align 8, !tbaa !61
  %51 = getelementptr inbounds nuw %struct.ViewSpecifier, ptr %50, i32 0, i32 0
  store i32 1, ptr %51, align 4, !tbaa !63
  %52 = load ptr, ptr %6, align 8, !tbaa !23
  %53 = call i64 @strtoul(ptr noundef %52, ptr noundef %7, i32 noundef 0) #12
  %54 = trunc i64 %53 to i32
  %55 = load ptr, ptr %5, align 8, !tbaa !61
  %56 = getelementptr inbounds nuw %struct.ViewSpecifier, ptr %55, i32 0, i32 1
  store i32 %54, ptr %56, align 4, !tbaa !65
  %57 = load ptr, ptr %7, align 8, !tbaa !23
  %58 = load ptr, ptr %6, align 8, !tbaa !23
  %59 = icmp eq ptr %57, %58
  br i1 %59, label %60, label %62

60:                                               ; preds = %47
  %61 = load ptr, ptr %6, align 8, !tbaa !23
  call void (ptr, i32, ptr, ...) @av_log(ptr noundef null, i32 noundef 16, ptr noundef @.str.7, ptr noundef %61)
  store i32 -22, ptr %3, align 4
  store i32 1, ptr %8, align 4
  br label %112

62:                                               ; preds = %47
  %63 = load ptr, ptr %7, align 8, !tbaa !23
  store ptr %63, ptr %6, align 8, !tbaa !23
  br label %108

64:                                               ; preds = %43
  %65 = load ptr, ptr %6, align 8, !tbaa !23
  %66 = call i32 @strncmp(ptr noundef %65, ptr noundef @.str.8, i64 noundef 5) #13
  %67 = icmp ne i32 %66, 0
  br i1 %67, label %106, label %68

68:                                               ; preds = %64
  %69 = load ptr, ptr %6, align 8, !tbaa !23
  %70 = getelementptr inbounds i8, ptr %69, i64 5
  store ptr %70, ptr %6, align 8, !tbaa !23
  %71 = load ptr, ptr %5, align 8, !tbaa !61
  %72 = getelementptr inbounds nuw %struct.ViewSpecifier, ptr %71, i32 0, i32 0
  store i32 3, ptr %72, align 4, !tbaa !63
  %73 = load ptr, ptr %6, align 8, !tbaa !23
  %74 = call i32 @strncmp(ptr noundef %73, ptr noundef @.str.9, i64 noundef 4) #13
  %75 = icmp ne i32 %74, 0
  br i1 %75, label %87, label %76

76:                                               ; preds = %68
  %77 = load ptr, ptr %6, align 8, !tbaa !23
  %78 = getelementptr inbounds i8, ptr %77, i64 4
  %79 = load i8, ptr %78, align 1, !tbaa !9
  %80 = call i32 @cmdutils_isalnum(i8 noundef signext %79)
  %81 = icmp ne i32 %80, 0
  br i1 %81, label %87, label %82

82:                                               ; preds = %76
  %83 = load ptr, ptr %6, align 8, !tbaa !23
  %84 = getelementptr inbounds i8, ptr %83, i64 4
  store ptr %84, ptr %6, align 8, !tbaa !23
  %85 = load ptr, ptr %5, align 8, !tbaa !61
  %86 = getelementptr inbounds nuw %struct.ViewSpecifier, ptr %85, i32 0, i32 1
  store i32 1, ptr %86, align 4, !tbaa !65
  br label %105

87:                                               ; preds = %76, %68
  %88 = load ptr, ptr %6, align 8, !tbaa !23
  %89 = call i32 @strncmp(ptr noundef %88, ptr noundef @.str.10, i64 noundef 5) #13
  %90 = icmp ne i32 %89, 0
  br i1 %90, label %102, label %91

91:                                               ; preds = %87
  %92 = load ptr, ptr %6, align 8, !tbaa !23
  %93 = getelementptr inbounds i8, ptr %92, i64 5
  %94 = load i8, ptr %93, align 1, !tbaa !9
  %95 = call i32 @cmdutils_isalnum(i8 noundef signext %94)
  %96 = icmp ne i32 %95, 0
  br i1 %96, label %102, label %97

97:                                               ; preds = %91
  %98 = load ptr, ptr %6, align 8, !tbaa !23
  %99 = getelementptr inbounds i8, ptr %98, i64 5
  store ptr %99, ptr %6, align 8, !tbaa !23
  %100 = load ptr, ptr %5, align 8, !tbaa !61
  %101 = getelementptr inbounds nuw %struct.ViewSpecifier, ptr %100, i32 0, i32 1
  store i32 2, ptr %101, align 4, !tbaa !65
  br label %104

102:                                              ; preds = %91, %87
  %103 = load ptr, ptr %6, align 8, !tbaa !23
  call void (ptr, i32, ptr, ...) @av_log(ptr noundef null, i32 noundef 16, ptr noundef @.str.11, ptr noundef %103)
  store i32 -22, ptr %3, align 4
  store i32 1, ptr %8, align 4
  br label %112

104:                                              ; preds = %97
  br label %105

105:                                              ; preds = %104, %82
  br label %107

106:                                              ; preds = %64
  store i32 0, ptr %3, align 4
  store i32 1, ptr %8, align 4
  br label %112

107:                                              ; preds = %105
  br label %108

108:                                              ; preds = %107, %62
  br label %109

109:                                              ; preds = %108, %42
  %110 = load ptr, ptr %6, align 8, !tbaa !23
  %111 = load ptr, ptr %4, align 8, !tbaa !31
  store ptr %110, ptr %111, align 8, !tbaa !23
  store i32 0, ptr %3, align 4
  store i32 1, ptr %8, align 4
  br label %112

112:                                              ; preds = %109, %106, %102, %60, %38
  call void @llvm.lifetime.end.p0(i64 8, ptr %7) #12
  call void @llvm.lifetime.end.p0(i64 8, ptr %6) #12
  %113 = load i32, ptr %3, align 4
  ret i32 %113
}