; Function Attrs: nounwind uwtable
define range(i32 -22, 1) i32 @view_specifier_parse(ptr noundef captures(none) %0, ptr noundef writeonly captures(none) initializes((0, 4)) %1) local_unnamed_addr #0 {
  %3 = alloca ptr, align 8
  %4 = load ptr, ptr %0, align 8, !tbaa !22
  call void @llvm.lifetime.start.p0(i64 8, ptr nonnull %3) #15
  store i32 0, ptr %1, align 4, !tbaa !42
  %5 = tail call i32 @strncmp(ptr noundef nonnull dereferenceable(1) %4, ptr noundef nonnull dereferenceable(6) @.str.3, i64 noundef 5) #17
  %.not = icmp eq i32 %5, 0
  br i1 %.not, label %sub_0, label %21

sub_0:                                            ; preds = %2
  %6 = getelementptr inbounds nuw i8, ptr %4, i64 5
  %7 = load i8, ptr %6, align 1
  %.not45 = icmp eq i8 %7, 97
  br i1 %.not45, label %sub_1, label %.tail.thread

sub_1:                                            ; preds = %sub_0
  %8 = getelementptr inbounds nuw i8, ptr %4, i64 6
  %9 = load i8, ptr %8, align 1
  %.not46 = icmp eq i8 %9, 108
  br i1 %.not46, label %.tail, label %.tail.thread

.tail:                                            ; preds = %sub_1
  %10 = getelementptr inbounds nuw i8, ptr %4, i64 7
  %11 = load i8, ptr %10, align 1
  %12 = icmp eq i8 %11, 108
  br i1 %12, label %13, label %.tail.thread

13:                                               ; preds = %.tail
  %14 = getelementptr inbounds nuw i8, ptr %4, i64 8
  store i32 4, ptr %1, align 4, !tbaa !42
  br label %51

.tail.thread:                                     ; preds = %sub_1, %sub_0, %.tail
  store i32 2, ptr %1, align 4, !tbaa !42
  %15 = call i64 @strtoul(ptr noundef nonnull %6, ptr noundef nonnull %3, i32 noundef 0) #15
  %16 = trunc i64 %15 to i32
  %17 = getelementptr inbounds nuw i8, ptr %1, i64 4
  store i32 %16, ptr %17, align 4, !tbaa !44
  %18 = load ptr, ptr %3, align 8, !tbaa !22
  %19 = icmp eq ptr %18, %6
  br i1 %19, label %20, label %51

20:                                               ; preds = %.tail.thread
  tail call void (ptr, i32, ptr, ...) @av_log(ptr noundef null, i32 noundef 16, ptr noundef nonnull @.str.5, ptr noundef nonnull %6) #15
  br label %52

21:                                               ; preds = %2
  %22 = tail call i32 @strncmp(ptr noundef nonnull dereferenceable(1) %4, ptr noundef nonnull dereferenceable(6) @.str.6, i64 noundef 5) #17
  %.not39 = icmp eq i32 %22, 0
  br i1 %.not39, label %23, label %31

23:                                               ; preds = %21
  %24 = getelementptr inbounds nuw i8, ptr %4, i64 5
  store i32 1, ptr %1, align 4, !tbaa !42
  %25 = call i64 @strtoul(ptr noundef nonnull %24, ptr noundef nonnull %3, i32 noundef 0) #15
  %26 = trunc i64 %25 to i32
  %27 = getelementptr inbounds nuw i8, ptr %1, i64 4
  store i32 %26, ptr %27, align 4, !tbaa !44
  %28 = load ptr, ptr %3, align 8, !tbaa !22
  %29 = icmp eq ptr %28, %24
  br i1 %29, label %30, label %51

30:                                               ; preds = %23
  tail call void (ptr, i32, ptr, ...) @av_log(ptr noundef null, i32 noundef 16, ptr noundef nonnull @.str.7, ptr noundef nonnull %24) #15
  br label %52

31:                                               ; preds = %21
  %32 = tail call i32 @strncmp(ptr noundef nonnull dereferenceable(1) %4, ptr noundef nonnull dereferenceable(6) @.str.8, i64 noundef 5) #17
  %.not40 = icmp eq i32 %32, 0
  br i1 %.not40, label %33, label %52

33:                                               ; preds = %31
  %34 = getelementptr inbounds nuw i8, ptr %4, i64 5
  store i32 3, ptr %1, align 4, !tbaa !42
  %35 = tail call i32 @strncmp(ptr noundef nonnull dereferenceable(1) %34, ptr noundef nonnull dereferenceable(5) @.str.9, i64 noundef 4) #17
  %.not41 = icmp eq i32 %35, 0
  br i1 %.not41, label %36, label %42

36:                                               ; preds = %33
  %37 = getelementptr inbounds nuw i8, ptr %4, i64 9
  %38 = load i8, ptr %37, align 1, !tbaa !19
  %39 = tail call i32 @cmdutils_isalnum(i8 noundef signext %38) #15
  %.not42 = icmp eq i32 %39, 0
  br i1 %.not42, label %40, label %42

40:                                               ; preds = %36
  %41 = getelementptr inbounds nuw i8, ptr %1, i64 4
  store i32 1, ptr %41, align 4, !tbaa !44
  br label %51

42:                                               ; preds = %36, %33
  %43 = tail call i32 @strncmp(ptr noundef nonnull dereferenceable(1) %34, ptr noundef nonnull dereferenceable(6) @.str.10, i64 noundef 5) #17
  %.not43 = icmp eq i32 %43, 0
  br i1 %.not43, label %44, label %50

44:                                               ; preds = %42
  %45 = getelementptr inbounds nuw i8, ptr %4, i64 10
  %46 = load i8, ptr %45, align 1, !tbaa !19
  %47 = tail call i32 @cmdutils_isalnum(i8 noundef signext %46) #15
  %.not44 = icmp eq i32 %47, 0
  br i1 %.not44, label %48, label %50

48:                                               ; preds = %44
  %49 = getelementptr inbounds nuw i8, ptr %1, i64 4
  store i32 2, ptr %49, align 4, !tbaa !44
  br label %51

50:                                               ; preds = %44, %42
  tail call void (ptr, i32, ptr, ...) @av_log(ptr noundef null, i32 noundef 16, ptr noundef nonnull @.str.11, ptr noundef nonnull %34) #15
  br label %52

51:                                               ; preds = %23, %.tail.thread, %40, %48, %13
  %.0 = phi ptr [ %45, %48 ], [ %37, %40 ], [ %14, %13 ], [ %18, %.tail.thread ], [ %28, %23 ]
  store ptr %.0, ptr %0, align 8, !tbaa !22
  br label %52

52:                                               ; preds = %31, %51, %50, %30, %20
  %.033 = phi i32 [ -22, %50 ], [ 0, %51 ], [ -22, %30 ], [ -22, %20 ], [ 0, %31 ]
  call void @llvm.lifetime.end.p0(i64 8, ptr nonnull %3) #15
  ret i32 %.033
}